target datalayout = "e-m:e-p270:32:32-p271:32:32-p272:64:64-i64:64-i128:128-f80:128-n8:16:32:64-S128"
target triple = "x86_64-pc-linux-gnu"

@global_rtcp_default_protocol = internal global i32 0, align 4

; Function Attrs: null_pointer_is_valid sspstrong uwtable
define internal i32 @dissect_srtcp(ptr noundef %0, ptr noundef %1, ptr noundef %2, ptr noundef %3) #0 {
  %5 = alloca ptr, align 8
  %6 = alloca ptr, align 8
  %7 = alloca ptr, align 8
  %8 = alloca ptr, align 8
  store ptr %0, ptr %5, align 8
  store ptr %1, ptr %6, align 8
  store ptr %2, ptr %7, align 8
  store ptr %3, ptr %8, align 8
  %9 = load ptr, ptr %5, align 8
  %10 = load ptr, ptr %6, align 8
  %11 = load ptr, ptr %7, align 8
  %12 = load ptr, ptr %8, align 8
  %13 = call i32 @dissect_rtcp_common(ptr noundef %9, ptr noundef %10, ptr noundef %11, ptr noundef %12, i1 noundef zeroext true)
  ret i32 %13
}

; Function Attrs: null_pointer_is_valid sspstrong uwtable
define internal i32 @dissect_rtcp(ptr noundef %0, ptr noundef %1, ptr noundef %2, ptr noundef %3) #0 {
  %5 = alloca ptr, align 8
  %6 = alloca ptr, align 8
  %7 = alloca ptr, align 8
  %8 = alloca ptr, align 8
  store ptr %0, ptr %5, align 8
  store ptr %1, ptr %6, align 8
  store ptr %2, ptr %7, align 8
  store ptr %3, ptr %8, align 8
  %9 = load ptr, ptr %5, align 8
  %10 = load ptr, ptr %6, align 8
  %11 = load ptr, ptr %7, align 8
  %12 = load ptr, ptr %8, align 8
  %13 = call i32 @dissect_rtcp_common(ptr noundef %9, ptr noundef %10, ptr noundef %11, ptr noundef %12, i1 noundef zeroext false)
  ret i32 %13
}

; Function Attrs: null_pointer_is_valid sspstrong uwtable
define internal zeroext i1 @dissect_rtcp_heur(ptr noundef %0, ptr noundef %1, ptr noundef %2, ptr noundef %3) #0 {
  %5 = alloca i1, align 1
  %6 = alloca ptr, align 8
  %7 = alloca ptr, align 8
  %8 = alloca ptr, align 8
  %9 = alloca ptr, align 8
  %10 = alloca i32, align 4
  %11 = alloca i32, align 4
  %12 = alloca i32, align 4
  %13 = alloca i32, align 4
  store ptr %0, ptr %6, align 8
  store ptr %1, ptr %7, align 8
  store ptr %2, ptr %8, align 8
  store ptr %3, ptr %9, align 8
  call void @llvm.lifetime.start.p0(i64 4, ptr %10) #9
  store i32 0, ptr %10, align 4
  call void @llvm.lifetime.start.p0(i64 4, ptr %11) #9
  call void @llvm.lifetime.start.p0(i64 4, ptr %12) #9
  %14 = load ptr, ptr %6, align 8
  %15 = call i32 @tvb_captured_length(ptr noundef %14)
  %16 = icmp ult i32 %15, 2
  br i1 %16, label %17, label %18

17:                                               ; preds = %4
  store i1 false, ptr %5, align 1
  store i32 1, ptr %13, align 4
  br label %71

18:                                               ; preds = %4
  %19 = load ptr, ptr %6, align 8
  %20 = load i32, ptr %10, align 4
  %21 = call zeroext i8 @tvb_get_uint8(ptr noundef %19, i32 noundef %20)
  %22 = zext i8 %21 to i32
  store i32 %22, ptr %11, align 4
  %23 = load i32, ptr %11, align 4
  %24 = and i32 %23, 192
  %25 = lshr i32 %24, 6
  %26 = icmp ne i32 %25, 2
  br i1 %26, label %27, label %28

27:                                               ; preds = %18
  store i1 false, ptr %5, align 1
  store i32 1, ptr %13, align 4
  br label %71

28:                                               ; preds = %18
  %29 = load ptr, ptr %6, align 8
  %30 = load i32, ptr %10, align 4
  %31 = add i32 %30, 1
  %32 = call zeroext i8 @tvb_get_uint8(ptr noundef %29, i32 noundef %31)
  %33 = zext i8 %32 to i32
  store i32 %33, ptr %12, align 4
  %34 = load i32, ptr %12, align 4
  %35 = icmp eq i32 %34, 200
  br i1 %35, label %49, label %36

36:                                               ; preds = %28
  %37 = load i32, ptr %12, align 4
  %38 = icmp eq i32 %37, 201
  br i1 %38, label %49, label %39

39:                                               ; preds = %36
  %40 = load i32, ptr %12, align 4
  %41 = icmp eq i32 %40, 203
  br i1 %41, label %49, label %42

42:                                               ; preds = %39
  %43 = load i32, ptr %12, align 4
  %44 = icmp eq i32 %43, 204
  br i1 %44, label %49, label %45

45:                                               ; preds = %42
  %46 = load i32, ptr %12, align 4
  %47 = icmp eq i32 %46, 206
  br i1 %47, label %49, label %48

48:                                               ; preds = %45
  store i1 false, ptr %5, align 1
  store i32 1, ptr %13, align 4
  br label %71

49:                                               ; preds = %45, %42, %39, %36, %28
  %50 = load ptr, ptr %6, align 8
  %51 = call i32 @tvb_reported_length(ptr noundef %50)
  %52 = urem i32 %51, 4
  %53 = icmp ne i32 %52, 0
  br i1 %53, label %54, label %55

54:                                               ; preds = %49
  store i1 false, ptr %5, align 1
  store i32 1, ptr %13, align 4
  br label %71

55:                                               ; preds = %49
  %56 = load i32, ptr @global_rtcp_default_protocol, align 4
  %57 = icmp eq i32 %56, 0
  br i1 %57, label %58, label %64

58:                                               ; preds = %55
  %59 = load ptr, ptr %6, align 8
  %60 = load ptr, ptr %7, align 8
  %61 = load ptr, ptr %8, align 8
  %62 = load ptr, ptr %9, align 8
  %63 = call i32 @dissect_rtcp(ptr noundef %59, ptr noundef %60, ptr noundef %61, ptr noundef %62)
  br label %70

64:                                               ; preds = %55
  %65 = load ptr, ptr %6, align 8
  %66 = load ptr, ptr %7, align 8
  %67 = load ptr, ptr %8, align 8
  %68 = load ptr, ptr %9, align 8
  %69 = call i32 @dissect_srtcp(ptr noundef %65, ptr noundef %66, ptr noundef %67, ptr noundef %68)
  br label %70

70:                                               ; preds = %64, %58
  store i1 true, ptr %5, align 1
  store i32 1, ptr %13, align 4
  br label %71

71:                                               ; preds = %70, %54, %48, %27, %17
  call void @llvm.lifetime.end.p0(i64 4, ptr %12) #9
  call void @llvm.lifetime.end.p0(i64 4, ptr %11) #9
  call void @llvm.lifetime.end.p0(i64 4, ptr %10) #9
  %72 = load i1, ptr %5, align 1
  ret i1 %72
}