; Function Attrs: null_pointer_is_valid sspstrong uwtable
define internal noundef zeroext i1 @dissect_rtcp_heur(ptr noundef %0, ptr noundef %1, ptr noundef %2, ptr readnone captures(none) %3) #0 {
  %5 = tail call i32 @tvb_captured_length(ptr noundef %0)
  %6 = icmp ult i32 %5, 2
  br i1 %6, label %17, label %7

7:                                                ; preds = %4
  %8 = tail call zeroext i8 @tvb_get_uint8(ptr noundef %0, i32 noundef 0)
  %.not = icmp slt i8 %8, -64
  br i1 %.not, label %9, label %17

9:                                                ; preds = %7
  %10 = tail call zeroext i8 @tvb_get_uint8(ptr noundef %0, i32 noundef 1)
  switch i8 %10, label %17 [
    i8 -50, label %11
    i8 -52, label %11
    i8 -53, label %11
    i8 -55, label %11
    i8 -56, label %11
  ]

11:                                               ; preds = %9, %9, %9, %9, %9
  %12 = tail call i32 @tvb_reported_length(ptr noundef %0)
  %13 = and i32 %12, 3
  %.not27 = icmp eq i32 %13, 0
  br i1 %.not27, label %.sink.split, label %17

.sink.split:                                      ; preds = %11
  %14 = load i32, ptr @global_rtcp_default_protocol, align 4
  %15 = icmp ne i32 %14, 0
  %16 = tail call fastcc i32 @dissect_rtcp_common(ptr noundef %0, ptr noundef %1, ptr noundef %2, i1 noundef zeroext %15)
  br label %17

17:                                               ; preds = %.sink.split, %11, %9, %7, %4
  %.0 = phi i1 [ false, %4 ], [ false, %7 ], [ false, %9 ], [ false, %11 ], [ true, %.sink.split ]
  ret i1 %.0
}